; Function Attrs: mustprogress nounwind uwtable
define hidden void @_ZN19OpenColorIO_v2_4dev11Lut1DOpDataD0Ev(ptr noundef nonnull align 8 dereferenceable(364) %this) unnamed_addr #4 align 2 personality ptr @__gxx_personality_v0 {
entry:
  store ptr getelementptr inbounds ({ [14 x ptr] }, ptr @_ZTVN19OpenColorIO_v2_4dev11Lut1DOpDataE, i64 0, i32 0, i64 2), ptr %this, align 8
  %m_array.i = getelementptr inbounds i8, ptr %this, i64 176
  store ptr getelementptr inbounds ({ [11 x ptr] }, ptr @_ZTVN19OpenColorIO_v2_4dev6ArrayTIfEE, i64 0, i32 0, i64 2), ptr %m_array.i, align 8
  %m_data.i.i.i = getelementptr inbounds i8, ptr %this, i64 200
  %0 = load ptr, ptr %m_data.i.i.i, align 8
  %tobool.not.i.i.i.i.i.i = icmp eq ptr %0, null
  br i1 %tobool.not.i.i.i.i.i.i, label %_ZN19OpenColorIO_v2_4dev11Lut1DOpDataD2Ev.exit, label %if.then.i.i.i.i.i.i

if.then.i.i.i.i.i.i:                              ; preds = %entry
  tail call void @_ZdlPv(ptr noundef nonnull %0) #27
  br label %_ZN19OpenColorIO_v2_4dev11Lut1DOpDataD2Ev.exit

_ZN19OpenColorIO_v2_4dev11Lut1DOpDataD2Ev.exit:   ; preds = %entry, %if.then.i.i.i.i.i.i
  store ptr getelementptr inbounds ({ [13 x ptr] }, ptr @_ZTVN19OpenColorIO_v2_4dev6OpDataE, i64 0, i32 0, i64 2), ptr %this, align 8
  %m_metadata.i.i = getelementptr inbounds i8, ptr %this, i64 48
  tail call void @_ZN19OpenColorIO_v2_4dev18FormatMetadataImplD1Ev(ptr noundef nonnull align 8 dereferenceable(120) %m_metadata.i.i) #25
  tail call void @_ZdlPv(ptr noundef nonnull %this) #27
  ret void
}